target datalayout = "e-m:e-p270:32:32-p271:32:32-p272:64:64-i64:64-i128:128-f80:128-n8:16:32:64-S128"
target triple = "x86_64-pc-linux-gnu"

%struct.re_pattern_buffer = type { ptr, i64, i64, i64, ptr, ptr, i64, i8 }
%struct.regmatch_t = type { i32, i32 }
%struct.run_command_args_t = type { ptr, ptr, ptr, i8, i32, i32, i8, ptr, ptr, ptr, ptr, i64, ptr, i8 }

@.str.5 = private unnamed_addr constant [8 x i8] c"DISPLAY\00", align 1
@.str.10 = private unnamed_addr constant [15 x i8] c"/usr/bin/xauth\00", align 1
@.str.11 = private unnamed_addr constant [6 x i8] c"xauth\00", align 1
@x11_get_xauth.cookie_pattern = internal global ptr @.str.12, align 8
@x11_get_xauth.wildcard_pattern = internal global ptr @.str.13, align 8
@.str.14 = private unnamed_addr constant [11 x i8] c"x11_util.c\00", align 1
@__func__.x11_get_xauth = private unnamed_addr constant [14 x i8] c"x11_get_xauth\00", align 1
@.str.15 = private unnamed_addr constant [5 x i8] c"list\00", align 1
@.str.16 = private unnamed_addr constant [58 x i8] c"Problem running xauth command. Cannot use X11 forwarding.\00", align 1
@.str.17 = private unnamed_addr constant [67 x i8] c"%s: Could not retrieve magic cookie, checking for wildcard cookie.\00", align 1
@.str.18 = private unnamed_addr constant [64 x i8] c"%s: Could not retrieve magic cookie. Cannot use X11 forwarding.\00", align 1

; Function Attrs: nounwind uwtable
define dso_local ptr @x11_get_xauth() #0 {
  %1 = alloca i32, align 4
  %2 = alloca i32, align 4
  %3 = alloca ptr, align 8
  %4 = alloca %struct.re_pattern_buffer, align 8
  %5 = alloca [2 x %struct.regmatch_t], align 16
  %6 = alloca ptr, align 8
  %7 = alloca ptr, align 8
  %8 = alloca %struct.run_command_args_t, align 8
  call void @llvm.lifetime.start.p0(i64 4, ptr %1) #11
  call void @llvm.lifetime.start.p0(i64 4, ptr %2) #11
  call void @llvm.lifetime.start.p0(i64 8, ptr %3) #11
  call void @llvm.lifetime.start.p0(i64 64, ptr %4) #11
  call void @llvm.lifetime.start.p0(i64 16, ptr %5) #11
  call void @llvm.lifetime.start.p0(i64 8, ptr %6) #11
  call void @llvm.lifetime.start.p0(i64 8, ptr %7) #11
  call void @llvm.lifetime.start.p0(i64 96, ptr %8) #11
  %9 = getelementptr inbounds nuw %struct.run_command_args_t, ptr %8, i32 0, i32 0
  store ptr null, ptr %9, align 8
  %10 = getelementptr inbounds nuw %struct.run_command_args_t, ptr %8, i32 0, i32 1
  store ptr null, ptr %10, align 8
  %11 = getelementptr inbounds nuw %struct.run_command_args_t, ptr %8, i32 0, i32 2
  store ptr null, ptr %11, align 8
  %12 = getelementptr inbounds nuw %struct.run_command_args_t, ptr %8, i32 0, i32 3
  store i8 0, ptr %12, align 8
  %13 = getelementptr i8, ptr %8, i64 25
  call void @llvm.memset.p0.i64(ptr align 1 %13, i8 0, i64 3, i1 false)
  %14 = getelementptr inbounds nuw %struct.run_command_args_t, ptr %8, i32 0, i32 4
  store i32 0, ptr %14, align 4
  %15 = getelementptr inbounds nuw %struct.run_command_args_t, ptr %8, i32 0, i32 5
  store i32 10000, ptr %15, align 8
  %16 = getelementptr inbounds nuw %struct.run_command_args_t, ptr %8, i32 0, i32 6
  store i8 0, ptr %16, align 4
  %17 = getelementptr i8, ptr %8, i64 37
  call void @llvm.memset.p0.i64(ptr align 1 %17, i8 0, i64 3, i1 false)
  %18 = getelementptr inbounds nuw %struct.run_command_args_t, ptr %8, i32 0, i32 7
  store ptr null, ptr %18, align 8
  %19 = getelementptr inbounds nuw %struct.run_command_args_t, ptr %8, i32 0, i32 8
  store ptr @.str.10, ptr %19, align 8
  %20 = getelementptr inbounds nuw %struct.run_command_args_t, ptr %8, i32 0, i32 9
  store ptr @.str.11, ptr %20, align 8
  %21 = getelementptr inbounds nuw %struct.run_command_args_t, ptr %8, i32 0, i32 10
  store ptr %1, ptr %21, align 8
  %22 = getelementptr inbounds nuw %struct.run_command_args_t, ptr %8, i32 0, i32 11
  store i64 0, ptr %22, align 8
  %23 = getelementptr inbounds nuw %struct.run_command_args_t, ptr %8, i32 0, i32 12
  store ptr null, ptr %23, align 8
  %24 = getelementptr inbounds nuw %struct.run_command_args_t, ptr %8, i32 0, i32 13
  store i8 0, ptr %24, align 8
  %25 = getelementptr i8, ptr %8, i64 89
  call void @llvm.memset.p0.i64(ptr align 1 %25, i8 0, i64 7, i1 false)
  %26 = call ptr @slurm_xcalloc(i64 noundef 1, i64 noundef 80, i1 noundef zeroext true, i1 noundef zeroext false, ptr noundef @.str.14, i32 noundef 205, ptr noundef @__func__.x11_get_xauth)
  store ptr %26, ptr %3, align 8
  %27 = call ptr @xstrdup(ptr noundef @.str.11)
  %28 = load ptr, ptr %3, align 8
  %29 = getelementptr inbounds ptr, ptr %28, i64 0
  store ptr %27, ptr %29, align 8
  %30 = call ptr @xstrdup(ptr noundef @.str.15)
  %31 = load ptr, ptr %3, align 8
  %32 = getelementptr inbounds ptr, ptr %31, i64 1
  store ptr %30, ptr %32, align 8
  %33 = call ptr @getenv(ptr noundef @.str.5) #11
  %34 = call ptr @xstrdup(ptr noundef %33)
  %35 = load ptr, ptr %3, align 8
  %36 = getelementptr inbounds ptr, ptr %35, i64 2
  store ptr %34, ptr %36, align 8
  %37 = load ptr, ptr %3, align 8
  %38 = getelementptr inbounds nuw %struct.run_command_args_t, ptr %8, i32 0, i32 7
  store ptr %37, ptr %38, align 8
  %39 = call ptr @run_command(ptr noundef %8)
  store ptr %39, ptr %6, align 8
  call void @slurm_xfree_array(ptr noundef %3)
  %40 = load i32, ptr %1, align 4
  %41 = icmp ne i32 %40, 0
  br i1 %41, label %42, label %44

42:                                               ; preds = %0
  %43 = call i32 (ptr, ...) @error(ptr noundef @.str.16)
  call void @exit(i32 noundef -1) #12
  unreachable

44:                                               ; preds = %0
  %45 = load ptr, ptr @x11_get_xauth.cookie_pattern, align 8
  %46 = call i32 @regcomp(ptr noundef %4, ptr noundef %45, i32 noundef 5)
  %47 = load ptr, ptr %6, align 8
  %48 = getelementptr inbounds [2 x %struct.regmatch_t], ptr %5, i64 0, i64 0
  %49 = call i32 @regexec(ptr noundef %4, ptr noundef %47, i64 noundef 2, ptr noundef %48, i32 noundef 0)
  %50 = icmp eq i32 %49, 1
  br i1 %50, label %51, label %71

51:                                               ; preds = %44
  br label %52

52:                                               ; preds = %51
  br label %53

53:                                               ; preds = %52
  %54 = call i32 @get_log_level()
  %55 = icmp sge i32 %54, 6
  br i1 %55, label %56, label %57

56:                                               ; preds = %53
  call void (i32, ptr, ...) @log_var(i32 noundef 6, ptr noundef @.str.17, ptr noundef @__func__.x11_get_xauth)
  br label %57

57:                                               ; preds = %56, %53
  br label %58

58:                                               ; preds = %57
  br label %59

59:                                               ; preds = %58
  br label %60

60:                                               ; preds = %59
  br label %61

61:                                               ; preds = %60
  %62 = load ptr, ptr @x11_get_xauth.wildcard_pattern, align 8
  %63 = call i32 @regcomp(ptr noundef %4, ptr noundef %62, i32 noundef 5)
  %64 = load ptr, ptr %6, align 8
  %65 = getelementptr inbounds [2 x %struct.regmatch_t], ptr %5, i64 0, i64 0
  %66 = call i32 @regexec(ptr noundef %4, ptr noundef %64, i64 noundef 2, ptr noundef %65, i32 noundef 0)
  %67 = icmp eq i32 %66, 1
  br i1 %67, label %68, label %70

68:                                               ; preds = %61
  %69 = call i32 (ptr, ...) @error(ptr noundef @.str.18, ptr noundef @__func__.x11_get_xauth)
  call void @exit(i32 noundef -1) #12
  unreachable

70:                                               ; preds = %61
  br label %71

71:                                               ; preds = %70, %44
  %72 = getelementptr inbounds [2 x %struct.regmatch_t], ptr %5, i64 0, i64 1
  %73 = getelementptr inbounds nuw %struct.regmatch_t, ptr %72, i32 0, i32 1
  %74 = load i32, ptr %73, align 4
  %75 = getelementptr inbounds [2 x %struct.regmatch_t], ptr %5, i64 0, i64 1
  %76 = getelementptr inbounds nuw %struct.regmatch_t, ptr %75, i32 0, i32 0
  %77 = load i32, ptr %76, align 8
  %78 = sub nsw i32 %74, %77
  %79 = add nsw i32 %78, 1
  store i32 %79, ptr %2, align 4
  %80 = load i32, ptr %2, align 4
  %81 = sext i32 %80 to i64
  %82 = call ptr @slurm_xcalloc(i64 noundef 1, i64 noundef %81, i1 noundef zeroext true, i1 noundef zeroext false, ptr noundef @.str.14, i32 noundef 236, ptr noundef @__func__.x11_get_xauth)
  store ptr %82, ptr %7, align 8
  %83 = load ptr, ptr %7, align 8
  %84 = load ptr, ptr %6, align 8
  %85 = getelementptr inbounds [2 x %struct.regmatch_t], ptr %5, i64 0, i64 1
  %86 = getelementptr inbounds nuw %struct.regmatch_t, ptr %85, i32 0, i32 0
  %87 = load i32, ptr %86, align 8
  %88 = sext i32 %87 to i64
  %89 = getelementptr inbounds i8, ptr %84, i64 %88
  %90 = load i32, ptr %2, align 4
  %91 = sext i32 %90 to i64
  %92 = call i64 @strlcpy(ptr noundef %83, ptr noundef %89, i64 noundef %91)
  call void @slurm_xfree(ptr noundef %6)
  %93 = load ptr, ptr %7, align 8
  call void @llvm.lifetime.end.p0(i64 96, ptr %8) #11
  call void @llvm.lifetime.end.p0(i64 8, ptr %7) #11
  call void @llvm.lifetime.end.p0(i64 8, ptr %6) #11
  call void @llvm.lifetime.end.p0(i64 16, ptr %5) #11
  call void @llvm.lifetime.end.p0(i64 64, ptr %4) #11
  call void @llvm.lifetime.end.p0(i64 8, ptr %3) #11
  call void @llvm.lifetime.end.p0(i64 4, ptr %2) #11
  call void @llvm.lifetime.end.p0(i64 4, ptr %1) #11
  ret ptr %93
}