; Function Attrs: nounwind uwtable
define dso_local noundef ptr @x11_get_xauth() local_unnamed_addr #0 {
  %1 = alloca i32, align 4
  %2 = alloca ptr, align 8
  %3 = alloca %struct.re_pattern_buffer, align 8
  %4 = alloca [2 x %struct.regmatch_t], align 16
  %5 = alloca ptr, align 8
  %6 = alloca %struct.run_command_args_t, align 8
  call void @llvm.lifetime.start.p0(i64 4, ptr nonnull %1) #15
  call void @llvm.lifetime.start.p0(i64 8, ptr nonnull %2) #15
  call void @llvm.lifetime.start.p0(i64 64, ptr nonnull %3) #15
  call void @llvm.lifetime.start.p0(i64 16, ptr nonnull %4) #15
  call void @llvm.lifetime.start.p0(i64 8, ptr nonnull %5) #15
  call void @llvm.lifetime.start.p0(i64 96, ptr nonnull %6) #15
  %7 = getelementptr inbounds nuw i8, ptr %6, i64 32
  call void @llvm.memset.p0.i64(ptr noundef nonnull align 8 dereferenceable(32) %6, i8 0, i64 32, i1 false)
  store i32 10000, ptr %7, align 8
  %8 = getelementptr inbounds nuw i8, ptr %6, i64 36
  %9 = getelementptr inbounds nuw i8, ptr %6, i64 40
  %10 = getelementptr inbounds nuw i8, ptr %6, i64 48
  store i32 0, ptr %8, align 4
  store ptr @.str.10, ptr %10, align 8
  %11 = getelementptr inbounds nuw i8, ptr %6, i64 56
  store ptr @.str.11, ptr %11, align 8
  %12 = getelementptr inbounds nuw i8, ptr %6, i64 64
  store ptr %1, ptr %12, align 8
  %13 = getelementptr inbounds nuw i8, ptr %6, i64 72
  call void @llvm.memset.p0.i64(ptr noundef nonnull align 8 dereferenceable(24) %13, i8 0, i64 24, i1 false)
  %14 = call ptr @slurm_xcalloc(i64 noundef 1, i64 noundef 80, i1 noundef zeroext true, i1 noundef zeroext false, ptr noundef nonnull @.str.14, i32 noundef 205, ptr noundef nonnull @__func__.x11_get_xauth) #15
  store ptr %14, ptr %2, align 8
  %15 = call ptr @xstrdup(ptr noundef nonnull @.str.11) #15
  store ptr %15, ptr %14, align 8
  %16 = call ptr @xstrdup(ptr noundef nonnull @.str.15) #15
  %17 = getelementptr inbounds nuw i8, ptr %14, i64 8
  store ptr %16, ptr %17, align 8
  %18 = call ptr @getenv(ptr noundef nonnull @.str.5) #15
  %19 = call ptr @xstrdup(ptr noundef %18) #15
  %20 = getelementptr inbounds nuw i8, ptr %14, i64 16
  store ptr %19, ptr %20, align 8
  store ptr %14, ptr %9, align 8
  %21 = call ptr @run_command(ptr noundef nonnull %6) #15
  store ptr %21, ptr %5, align 8
  call void @slurm_xfree_array(ptr noundef nonnull %2) #15
  %22 = load i32, ptr %1, align 4
  %.not = icmp eq i32 %22, 0
  br i1 %.not, label %25, label %23

23:                                               ; preds = %0
  %24 = call i32 (ptr, ...) @error(ptr noundef nonnull @.str.16) #15
  call void @exit(i32 noundef -1) #16
  unreachable

25:                                               ; preds = %0
  %26 = call i32 @regcomp(ptr noundef nonnull %3, ptr noundef nonnull @.str.12, i32 noundef 5) #15
  %27 = call i32 @regexec(ptr noundef nonnull %3, ptr noundef %21, i64 noundef 2, ptr noundef nonnull %4, i32 noundef 0) #15
  %28 = icmp eq i32 %27, 1
  br i1 %28, label %29, label %39

29:                                               ; preds = %25
  %30 = call i32 @get_log_level() #15
  %31 = icmp sgt i32 %30, 5
  br i1 %31, label %32, label %33

32:                                               ; preds = %29
  call void (i32, ptr, ...) @log_var(i32 noundef 6, ptr noundef nonnull @.str.17, ptr noundef nonnull @__func__.x11_get_xauth) #15
  br label %33

33:                                               ; preds = %32, %29
  %34 = call i32 @regcomp(ptr noundef nonnull %3, ptr noundef nonnull @.str.13, i32 noundef 5) #15
  %35 = call i32 @regexec(ptr noundef nonnull %3, ptr noundef %21, i64 noundef 2, ptr noundef nonnull %4, i32 noundef 0) #15
  %36 = icmp eq i32 %35, 1
  br i1 %36, label %37, label %39

37:                                               ; preds = %33
  %38 = call i32 (ptr, ...) @error(ptr noundef nonnull @.str.18, ptr noundef nonnull @__func__.x11_get_xauth) #15
  call void @exit(i32 noundef -1) #16
  unreachable

39:                                               ; preds = %33, %25
  %40 = getelementptr inbounds nuw i8, ptr %4, i64 8
  %41 = getelementptr inbounds nuw i8, ptr %4, i64 12
  %42 = load i32, ptr %41, align 4
  %43 = load i32, ptr %40, align 8
  %44 = add i32 %42, 1
  %45 = sub i32 %44, %43
  %46 = sext i32 %45 to i64
  %47 = call ptr @slurm_xcalloc(i64 noundef 1, i64 noundef %46, i1 noundef zeroext true, i1 noundef zeroext false, ptr noundef nonnull @.str.14, i32 noundef 236, ptr noundef nonnull @__func__.x11_get_xauth) #15
  %48 = load i32, ptr %40, align 8
  %49 = sext i32 %48 to i64
  %50 = getelementptr inbounds i8, ptr %21, i64 %49
  %51 = call i64 @strlcpy(ptr noundef %47, ptr noundef nonnull dereferenceable(1) %50, i64 noundef %46) #15
  call void @slurm_xfree(ptr noundef nonnull %5) #15
  call void @llvm.lifetime.end.p0(i64 96, ptr nonnull %6) #15
  call void @llvm.lifetime.end.p0(i64 8, ptr nonnull %5) #15
  call void @llvm.lifetime.end.p0(i64 16, ptr nonnull %4) #15
  call void @llvm.lifetime.end.p0(i64 64, ptr nonnull %3) #15
  call void @llvm.lifetime.end.p0(i64 8, ptr nonnull %2) #15
  call void @llvm.lifetime.end.p0(i64 4, ptr nonnull %1) #15
  ret ptr %47
}